target datalayout = "e-m:e-p270:32:32-p271:32:32-p272:64:64-i64:64-i128:128-f80:128-n8:16:32:64-S128"
target triple = "x86_64-unknown-linux-gnu"

%"class.QuantLib::Matrix" = type { %"class.std::unique_ptr", i64, i64 }
%"class.std::unique_ptr" = type { %"struct.std::__uniq_ptr_data" }
%"struct.std::__uniq_ptr_data" = type { %"class.std::__uniq_ptr_impl" }
%"class.std::__uniq_ptr_impl" = type { %"class.std::tuple" }
%"class.std::tuple" = type { %"struct.std::_Tuple_impl" }
%"struct.std::_Tuple_impl" = type { %"struct.std::_Head_base.1" }
%"struct.std::_Head_base.1" = type { ptr }
%"class.QuantLib::Array" = type { %"class.std::unique_ptr", i64 }
%"class.QuantLib::(anonymous namespace)::HypersphereCostFunction" = type { %"class.QuantLib::CostFunction", i64, i8, %"class.QuantLib::Matrix", %"class.QuantLib::Array", %"class.QuantLib::Matrix", %"class.QuantLib::Matrix", %"class.QuantLib::Matrix" }
%"class.QuantLib::CostFunction" = type { ptr }

; Function Attrs: mustprogress nounwind uwtable
define linkonce_odr noundef nonnull align 1 dereferenceable(1) ptr @_ZNSt10_Head_baseILm1ESt14default_deleteIA_dELb1EE7_M_headERS3_(ptr noundef nonnull align 1 dereferenceable(1) %__b) #4 comdat align 2 {
entry:
  %__b.addr = alloca ptr, align 8
  store ptr %__b, ptr %__b.addr, align 8, !tbaa !3
  %0 = load ptr, ptr %__b.addr, align 8, !tbaa !3
  ret ptr %0
}

; Function Attrs: mustprogress nounwind uwtable
define linkonce_odr noundef nonnull align 1 dereferenceable(1) ptr @_ZNSt11_Tuple_implILm1EJSt14default_deleteIA_dEEE7_M_headERS3_(ptr noundef nonnull align 1 dereferenceable(1) %__t) #4 comdat align 2 {
entry:
  %__t.addr = alloca ptr, align 8
  store ptr %__t, ptr %__t.addr, align 8, !tbaa !3
  %0 = load ptr, ptr %__t.addr, align 8, !tbaa !3
  %call = call noundef nonnull align 1 dereferenceable(1) ptr @_ZNSt10_Head_baseILm1ESt14default_deleteIA_dELb1EE7_M_headERS3_(ptr noundef nonnull align 1 dereferenceable(1) %0) #15
  ret ptr %call
}

; Function Attrs: mustprogress nounwind uwtable
define linkonce_odr noundef nonnull align 8 dereferenceable(8) ptr @_ZNSt10_Head_baseILm0EPdLb0EE7_M_headERS1_(ptr noundef nonnull align 8 dereferenceable(8) %__b) #4 comdat align 2 {
entry:
  %__b.addr = alloca ptr, align 8
  store ptr %__b, ptr %__b.addr, align 8, !tbaa !3
  %0 = load ptr, ptr %__b.addr, align 8, !tbaa !3
  %_M_head_impl = getelementptr inbounds nuw %"struct.std::_Head_base.1", ptr %0, i32 0, i32 0
  ret ptr %_M_head_impl
}

; Function Attrs: mustprogress nounwind uwtable
define linkonce_odr noundef nonnull align 1 dereferenceable(1) ptr @_ZSt12__get_helperILm1ESt14default_deleteIA_dEJEERT0_RSt11_Tuple_implIXT_EJS3_DpT1_EE(ptr noundef nonnull align 1 dereferenceable(1) %__t) #4 comdat {
entry:
  %__t.addr = alloca ptr, align 8
  store ptr %__t, ptr %__t.addr, align 8, !tbaa !3
  %0 = load ptr, ptr %__t.addr, align 8, !tbaa !3
  %call = call noundef nonnull align 1 dereferenceable(1) ptr @_ZNSt11_Tuple_implILm1EJSt14default_deleteIA_dEEE7_M_headERS3_(ptr noundef nonnull align 1 dereferenceable(1) %0) #15
  ret ptr %call
}

; Function Attrs: mustprogress nounwind uwtable
define linkonce_odr noundef nonnull align 8 dereferenceable(8) ptr @_ZNSt11_Tuple_implILm0EJPdSt14default_deleteIA_dEEE7_M_headERS4_(ptr noundef nonnull align 8 dereferenceable(8) %__t) #4 comdat align 2 {
entry:
  %__t.addr = alloca ptr, align 8
  store ptr %__t, ptr %__t.addr, align 8, !tbaa !3
  %0 = load ptr, ptr %__t.addr, align 8, !tbaa !3
  %call = call noundef nonnull align 8 dereferenceable(8) ptr @_ZNSt10_Head_baseILm0EPdLb0EE7_M_headERS1_(ptr noundef nonnull align 8 dereferenceable(8) %0) #15
  ret ptr %call
}

; Function Attrs: mustprogress nounwind uwtable
define linkonce_odr noundef nonnull align 1 dereferenceable(1) ptr @_ZSt3getILm1EJPdSt14default_deleteIA_dEEERNSt13tuple_elementIXT_ESt5tupleIJDpT0_EEE4typeERS8_(ptr noundef nonnull align 8 dereferenceable(8) %__t) #4 comdat {
entry:
  %__t.addr = alloca ptr, align 8
  store ptr %__t, ptr %__t.addr, align 8, !tbaa !3
  %0 = load ptr, ptr %__t.addr, align 8, !tbaa !3
  %call = call noundef nonnull align 1 dereferenceable(1) ptr @_ZSt12__get_helperILm1ESt14default_deleteIA_dEJEERT0_RSt11_Tuple_implIXT_EJS3_DpT1_EE(ptr noundef nonnull align 1 dereferenceable(1) %0) #15
  ret ptr %call
}

; Function Attrs: mustprogress nounwind uwtable
define linkonce_odr noundef nonnull align 8 dereferenceable(8) ptr @_ZSt12__get_helperILm0EPdJSt14default_deleteIA_dEEERT0_RSt11_Tuple_implIXT_EJS4_DpT1_EE(ptr noundef nonnull align 8 dereferenceable(8) %__t) #4 comdat {
entry:
  %__t.addr = alloca ptr, align 8
  store ptr %__t, ptr %__t.addr, align 8, !tbaa !3
  %0 = load ptr, ptr %__t.addr, align 8, !tbaa !3
  %call = call noundef nonnull align 8 dereferenceable(8) ptr @_ZNSt11_Tuple_implILm0EJPdSt14default_deleteIA_dEEE7_M_headERS4_(ptr noundef nonnull align 8 dereferenceable(8) %0) #15
  ret ptr %call
}

; Function Attrs: mustprogress nounwind uwtable
define linkonce_odr noundef nonnull align 1 dereferenceable(1) ptr @_ZNSt15__uniq_ptr_implIdSt14default_deleteIA_dEE10_M_deleterEv(ptr noundef nonnull align 8 dereferenceable(8) %this) #4 comdat align 2 {
entry:
  %this.addr = alloca ptr, align 8
  store ptr %this, ptr %this.addr, align 8, !tbaa !3
  %this1 = load ptr, ptr %this.addr, align 8
  %_M_t = getelementptr inbounds nuw %"class.std::__uniq_ptr_impl", ptr %this1, i32 0, i32 0
  %call = call noundef nonnull align 1 dereferenceable(1) ptr @_ZSt3getILm1EJPdSt14default_deleteIA_dEEERNSt13tuple_elementIXT_ESt5tupleIJDpT0_EEE4typeERS8_(ptr noundef nonnull align 8 dereferenceable(8) %_M_t) #15
  ret ptr %call
}

; Function Attrs: mustprogress nounwind uwtable
define linkonce_odr noundef nonnull align 8 dereferenceable(8) ptr @_ZSt3getILm0EJPdSt14default_deleteIA_dEEERNSt13tuple_elementIXT_ESt5tupleIJDpT0_EEE4typeERS8_(ptr noundef nonnull align 8 dereferenceable(8) %__t) #4 comdat {
entry:
  %__t.addr = alloca ptr, align 8
  store ptr %__t, ptr %__t.addr, align 8, !tbaa !3
  %0 = load ptr, ptr %__t.addr, align 8, !tbaa !3
  %call = call noundef nonnull align 8 dereferenceable(8) ptr @_ZSt12__get_helperILm0EPdJSt14default_deleteIA_dEEERT0_RSt11_Tuple_implIXT_EJS4_DpT1_EE(ptr noundef nonnull align 8 dereferenceable(8) %0) #15
  ret ptr %call
}

; Function Attrs: noinline noreturn nounwind uwtable
define linkonce_odr hidden void @__clang_call_terminate(ptr noundef %0) #7 comdat {
  %2 = call ptr @__cxa_begin_catch(ptr %0) #15
  call void @_ZSt9terminatev() #17
  unreachable
}

; Function Attrs: mustprogress nounwind uwtable
define linkonce_odr void @_ZNKSt14default_deleteIA_dEclIdEENSt9enable_ifIXsr14is_convertibleIPA_T_PS0_EE5valueEvE4typeEPS4_(ptr noundef nonnull align 1 dereferenceable(1) %this, ptr noundef %__ptr) #4 comdat align 2 {
entry:
  %this.addr = alloca ptr, align 8
  %__ptr.addr = alloca ptr, align 8
  store ptr %this, ptr %this.addr, align 8, !tbaa !3
  store ptr %__ptr, ptr %__ptr.addr, align 8, !tbaa !3
  %0 = load ptr, ptr %__ptr.addr, align 8, !tbaa !3
  %isnull = icmp eq ptr %0, null
  br i1 %isnull, label %delete.end, label %delete.notnull

delete.notnull:                                   ; preds = %entry
  call void @_ZdaPv(ptr noundef %0) #19
  br label %delete.end

delete.end:                                       ; preds = %delete.notnull, %entry
  ret void
}

; Function Attrs: mustprogress nounwind uwtable
define linkonce_odr noundef nonnull align 1 dereferenceable(1) ptr @_ZNSt10unique_ptrIA_dSt14default_deleteIS0_EE11get_deleterEv(ptr noundef nonnull align 8 dereferenceable(8) %this) #4 comdat align 2 {
entry:
  %this.addr = alloca ptr, align 8
  store ptr %this, ptr %this.addr, align 8, !tbaa !3
  %this1 = load ptr, ptr %this.addr, align 8
  %_M_t = getelementptr inbounds nuw %"class.std::unique_ptr", ptr %this1, i32 0, i32 0
  %call = call noundef nonnull align 1 dereferenceable(1) ptr @_ZNSt15__uniq_ptr_implIdSt14default_deleteIA_dEE10_M_deleterEv(ptr noundef nonnull align 8 dereferenceable(8) %_M_t) #15
  ret ptr %call
}

; Function Attrs: mustprogress nounwind uwtable
define linkonce_odr noundef nonnull align 8 dereferenceable(8) ptr @_ZNSt15__uniq_ptr_implIdSt14default_deleteIA_dEE6_M_ptrEv(ptr noundef nonnull align 8 dereferenceable(8) %this) #4 comdat align 2 {
entry:
  %this.addr = alloca ptr, align 8
  store ptr %this, ptr %this.addr, align 8, !tbaa !3
  %this1 = load ptr, ptr %this.addr, align 8
  %_M_t = getelementptr inbounds nuw %"class.std::__uniq_ptr_impl", ptr %this1, i32 0, i32 0
  %call = call noundef nonnull align 8 dereferenceable(8) ptr @_ZSt3getILm0EJPdSt14default_deleteIA_dEEERNSt13tuple_elementIXT_ESt5tupleIJDpT0_EEE4typeERS8_(ptr noundef nonnull align 8 dereferenceable(8) %_M_t) #15
  ret ptr %call
}

; Function Attrs: mustprogress nounwind uwtable
define linkonce_odr void @_ZNSt10unique_ptrIA_dSt14default_deleteIS0_EED2Ev(ptr noundef nonnull align 8 dereferenceable(8) %this) unnamed_addr #4 comdat align 2 personality ptr @__gxx_personality_v0 {
entry:
  %this.addr = alloca ptr, align 8
  %__ptr = alloca ptr, align 8
  store ptr %this, ptr %this.addr, align 8, !tbaa !3
  %this1 = load ptr, ptr %this.addr, align 8
  call void @llvm.lifetime.start.p0(i64 8, ptr %__ptr) #15
  %_M_t = getelementptr inbounds nuw %"class.std::unique_ptr", ptr %this1, i32 0, i32 0
  %call = call noundef nonnull align 8 dereferenceable(8) ptr @_ZNSt15__uniq_ptr_implIdSt14default_deleteIA_dEE6_M_ptrEv(ptr noundef nonnull align 8 dereferenceable(8) %_M_t) #15
  store ptr %call, ptr %__ptr, align 8, !tbaa !3
  %0 = load ptr, ptr %__ptr, align 8, !tbaa !3
  %1 = load ptr, ptr %0, align 8, !tbaa !3
  %cmp = icmp ne ptr %1, null
  br i1 %cmp, label %if.then, label %if.end

if.then:                                          ; preds = %entry
  %call2 = call noundef nonnull align 1 dereferenceable(1) ptr @_ZNSt10unique_ptrIA_dSt14default_deleteIS0_EE11get_deleterEv(ptr noundef nonnull align 8 dereferenceable(8) %this1) #15
  %2 = load ptr, ptr %__ptr, align 8, !tbaa !3
  %3 = load ptr, ptr %2, align 8, !tbaa !3
  invoke void @_ZNKSt14default_deleteIA_dEclIdEENSt9enable_ifIXsr14is_convertibleIPA_T_PS0_EE5valueEvE4typeEPS4_(ptr noundef nonnull align 1 dereferenceable(1) %call2, ptr noundef %3)
          to label %invoke.cont unwind label %terminate.lpad

invoke.cont:                                      ; preds = %if.then
  br label %if.end

if.end:                                           ; preds = %invoke.cont, %entry
  %4 = load ptr, ptr %__ptr, align 8, !tbaa !3
  store ptr null, ptr %4, align 8, !tbaa !3
  call void @llvm.lifetime.end.p0(i64 8, ptr %__ptr) #15
  ret void

terminate.lpad:                                   ; preds = %if.then
  %5 = landingpad { ptr, i32 }
          catch ptr null
  %6 = extractvalue { ptr, i32 } %5, 0
  call void @__clang_call_terminate(ptr %6) #17
  unreachable
}

; Function Attrs: mustprogress nounwind uwtable
define linkonce_odr void @_ZN8QuantLib12CostFunctionD2Ev(ptr noundef nonnull align 8 dereferenceable(8) %this) unnamed_addr #4 comdat align 2 {
entry:
  %this.addr = alloca ptr, align 8
  store ptr %this, ptr %this.addr, align 8, !tbaa !3
  ret void
}

; Function Attrs: mustprogress nounwind uwtable
define linkonce_odr void @_ZN8QuantLib5ArrayD2Ev(ptr noundef nonnull align 8 dereferenceable(16) %this) unnamed_addr #4 comdat align 2 {
entry:
  %this.addr = alloca ptr, align 8
  store ptr %this, ptr %this.addr, align 8, !tbaa !3
  %this1 = load ptr, ptr %this.addr, align 8
  %data_ = getelementptr inbounds nuw %"class.QuantLib::Array", ptr %this1, i32 0, i32 0
  call void @_ZNSt10unique_ptrIA_dSt14default_deleteIS0_EED2Ev(ptr noundef nonnull align 8 dereferenceable(8) %data_) #15
  ret void
}

; Function Attrs: mustprogress nounwind uwtable
define linkonce_odr void @_ZN8QuantLib6MatrixD2Ev(ptr noundef nonnull align 8 dereferenceable(24) %this) unnamed_addr #4 comdat align 2 {
entry:
  %this.addr = alloca ptr, align 8
  store ptr %this, ptr %this.addr, align 8, !tbaa !3
  %this1 = load ptr, ptr %this.addr, align 8
  %data_ = getelementptr inbounds nuw %"class.QuantLib::Matrix", ptr %this1, i32 0, i32 0
  call void @_ZNSt10unique_ptrIA_dSt14default_deleteIS0_EED2Ev(ptr noundef nonnull align 8 dereferenceable(8) %data_) #15
  ret void
}

; Function Attrs: inlinehint mustprogress nounwind uwtable
define internal void @_ZN8QuantLib12_GLOBAL__N_123HypersphereCostFunctionD2Ev(ptr noundef nonnull align 8 dereferenceable(136) %this) unnamed_addr #2 align 2 {
entry:
  %this.addr = alloca ptr, align 8
  store ptr %this, ptr %this.addr, align 8, !tbaa !3
  %this1 = load ptr, ptr %this.addr, align 8
  store ptr getelementptr inbounds inrange(-16, 72) ({ [11 x ptr] }, ptr @_ZTVN8QuantLib12_GLOBAL__N_123HypersphereCostFunctionE, i32 0, i32 0, i32 2), ptr %this1, align 8, !tbaa !32
  %currentMatrix_ = getelementptr inbounds nuw %"class.QuantLib::(anonymous namespace)::HypersphereCostFunction", ptr %this1, i32 0, i32 7
  call void @_ZN8QuantLib6MatrixD2Ev(ptr noundef nonnull align 8 dereferenceable(24) %currentMatrix_) #15
  %tempMatrix_ = getelementptr inbounds nuw %"class.QuantLib::(anonymous namespace)::HypersphereCostFunction", ptr %this1, i32 0, i32 6
  call void @_ZN8QuantLib6MatrixD2Ev(ptr noundef nonnull align 8 dereferenceable(24) %tempMatrix_) #15
  %currentRoot_ = getelementptr inbounds nuw %"class.QuantLib::(anonymous namespace)::HypersphereCostFunction", ptr %this1, i32 0, i32 5
  call void @_ZN8QuantLib6MatrixD2Ev(ptr noundef nonnull align 8 dereferenceable(24) %currentRoot_) #15
  %targetVariance_ = getelementptr inbounds nuw %"class.QuantLib::(anonymous namespace)::HypersphereCostFunction", ptr %this1, i32 0, i32 4
  call void @_ZN8QuantLib5ArrayD2Ev(ptr noundef nonnull align 8 dereferenceable(16) %targetVariance_) #15
  %targetMatrix_ = getelementptr inbounds nuw %"class.QuantLib::(anonymous namespace)::HypersphereCostFunction", ptr %this1, i32 0, i32 3
  call void @_ZN8QuantLib6MatrixD2Ev(ptr noundef nonnull align 8 dereferenceable(24) %targetMatrix_) #15
  call void @_ZN8QuantLib12CostFunctionD2Ev(ptr noundef nonnull align 8 dereferenceable(8) %this1) #15
  ret void
}