; Function Attrs: inlinehint mustprogress nounwind uwtable
define internal void @_ZN8QuantLib12_GLOBAL__N_123HypersphereCostFunctionD2Ev(ptr nocapture noundef nonnull align 8 dereferenceable(136) %this) unnamed_addr #3 align 2 personality ptr @__gxx_personality_v0 {
entry:
  store ptr getelementptr inbounds inrange(-16, 72) (i8, ptr @_ZTVN8QuantLib12_GLOBAL__N_123HypersphereCostFunctionE, i64 16), ptr %this, align 8, !tbaa !24
  %currentMatrix_ = getelementptr inbounds nuw i8, ptr %this, i64 112
  %0 = load ptr, ptr %currentMatrix_, align 8, !tbaa !21
  %cmp.not.i.i = icmp eq ptr %0, null
  br i1 %cmp.not.i.i, label %_ZN8QuantLib6MatrixD2Ev.exit, label %_ZNKSt14default_deleteIA_dEclIdEENSt9enable_ifIXsr14is_convertibleIPA_T_PS0_EE5valueEvE4typeEPS4_.exit.i.i

_ZNKSt14default_deleteIA_dEclIdEENSt9enable_ifIXsr14is_convertibleIPA_T_PS0_EE5valueEvE4typeEPS4_.exit.i.i: ; preds = %entry
  tail call void @_ZdaPv(ptr noundef nonnull %0) #24
  br label %_ZN8QuantLib6MatrixD2Ev.exit

_ZN8QuantLib6MatrixD2Ev.exit:                     ; preds = %entry, %_ZNKSt14default_deleteIA_dEclIdEENSt9enable_ifIXsr14is_convertibleIPA_T_PS0_EE5valueEvE4typeEPS4_.exit.i.i
  store ptr null, ptr %currentMatrix_, align 8, !tbaa !21
  %tempMatrix_ = getelementptr inbounds nuw i8, ptr %this, i64 88
  %1 = load ptr, ptr %tempMatrix_, align 8, !tbaa !21
  %cmp.not.i.i1 = icmp eq ptr %1, null
  br i1 %cmp.not.i.i1, label %_ZN8QuantLib6MatrixD2Ev.exit3, label %_ZNKSt14default_deleteIA_dEclIdEENSt9enable_ifIXsr14is_convertibleIPA_T_PS0_EE5valueEvE4typeEPS4_.exit.i.i2

_ZNKSt14default_deleteIA_dEclIdEENSt9enable_ifIXsr14is_convertibleIPA_T_PS0_EE5valueEvE4typeEPS4_.exit.i.i2: ; preds = %_ZN8QuantLib6MatrixD2Ev.exit
  tail call void @_ZdaPv(ptr noundef nonnull %1) #24
  br label %_ZN8QuantLib6MatrixD2Ev.exit3

_ZN8QuantLib6MatrixD2Ev.exit3:                    ; preds = %_ZN8QuantLib6MatrixD2Ev.exit, %_ZNKSt14default_deleteIA_dEclIdEENSt9enable_ifIXsr14is_convertibleIPA_T_PS0_EE5valueEvE4typeEPS4_.exit.i.i2
  store ptr null, ptr %tempMatrix_, align 8, !tbaa !21
  %currentRoot_ = getelementptr inbounds nuw i8, ptr %this, i64 64
  %2 = load ptr, ptr %currentRoot_, align 8, !tbaa !21
  %cmp.not.i.i4 = icmp eq ptr %2, null
  br i1 %cmp.not.i.i4, label %_ZN8QuantLib6MatrixD2Ev.exit6, label %_ZNKSt14default_deleteIA_dEclIdEENSt9enable_ifIXsr14is_convertibleIPA_T_PS0_EE5valueEvE4typeEPS4_.exit.i.i5

_ZNKSt14default_deleteIA_dEclIdEENSt9enable_ifIXsr14is_convertibleIPA_T_PS0_EE5valueEvE4typeEPS4_.exit.i.i5: ; preds = %_ZN8QuantLib6MatrixD2Ev.exit3
  tail call void @_ZdaPv(ptr noundef nonnull %2) #24
  br label %_ZN8QuantLib6MatrixD2Ev.exit6

_ZN8QuantLib6MatrixD2Ev.exit6:                    ; preds = %_ZN8QuantLib6MatrixD2Ev.exit3, %_ZNKSt14default_deleteIA_dEclIdEENSt9enable_ifIXsr14is_convertibleIPA_T_PS0_EE5valueEvE4typeEPS4_.exit.i.i5
  store ptr null, ptr %currentRoot_, align 8, !tbaa !21
  %targetVariance_ = getelementptr inbounds nuw i8, ptr %this, i64 48
  %3 = load ptr, ptr %targetVariance_, align 8, !tbaa !21
  %cmp.not.i.i7 = icmp eq ptr %3, null
  br i1 %cmp.not.i.i7, label %_ZN8QuantLib5ArrayD2Ev.exit, label %_ZNKSt14default_deleteIA_dEclIdEENSt9enable_ifIXsr14is_convertibleIPA_T_PS0_EE5valueEvE4typeEPS4_.exit.i.i8

_ZNKSt14default_deleteIA_dEclIdEENSt9enable_ifIXsr14is_convertibleIPA_T_PS0_EE5valueEvE4typeEPS4_.exit.i.i8: ; preds = %_ZN8QuantLib6MatrixD2Ev.exit6
  tail call void @_ZdaPv(ptr noundef nonnull %3) #24
  br label %_ZN8QuantLib5ArrayD2Ev.exit

_ZN8QuantLib5ArrayD2Ev.exit:                      ; preds = %_ZN8QuantLib6MatrixD2Ev.exit6, %_ZNKSt14default_deleteIA_dEclIdEENSt9enable_ifIXsr14is_convertibleIPA_T_PS0_EE5valueEvE4typeEPS4_.exit.i.i8
  store ptr null, ptr %targetVariance_, align 8, !tbaa !21
  %targetMatrix_ = getelementptr inbounds nuw i8, ptr %this, i64 24
  %4 = load ptr, ptr %targetMatrix_, align 8, !tbaa !21
  %cmp.not.i.i9 = icmp eq ptr %4, null
  br i1 %cmp.not.i.i9, label %_ZN8QuantLib6MatrixD2Ev.exit11, label %_ZNKSt14default_deleteIA_dEclIdEENSt9enable_ifIXsr14is_convertibleIPA_T_PS0_EE5valueEvE4typeEPS4_.exit.i.i10

_ZNKSt14default_deleteIA_dEclIdEENSt9enable_ifIXsr14is_convertibleIPA_T_PS0_EE5valueEvE4typeEPS4_.exit.i.i10: ; preds = %_ZN8QuantLib5ArrayD2Ev.exit
  tail call void @_ZdaPv(ptr noundef nonnull %4) #24
  br label %_ZN8QuantLib6MatrixD2Ev.exit11

_ZN8QuantLib6MatrixD2Ev.exit11:                   ; preds = %_ZN8QuantLib5ArrayD2Ev.exit, %_ZNKSt14default_deleteIA_dEclIdEENSt9enable_ifIXsr14is_convertibleIPA_T_PS0_EE5valueEvE4typeEPS4_.exit.i.i10
  store ptr null, ptr %targetMatrix_, align 8, !tbaa !21
  ret void
}